target datalayout = "e-m:e-p270:32:32-p271:32:32-p272:64:64-i64:64-i128:128-f80:128-n8:16:32:64-S128"
target triple = "x86_64-unknown-linux-gnu"

; Function Attrs: nounwind sspstrong uwtable
define internal i32 @rol32(i32 noundef %word, i32 noundef %shift) #0 {
entry:
  %word.addr = alloca i32, align 4
  %shift.addr = alloca i32, align 4
  store i32 %word, ptr %word.addr, align 4
  store i32 %shift, ptr %shift.addr, align 4
  %0 = load i32, ptr %word.addr, align 4
  %1 = load i32, ptr %shift.addr, align 4
  %and = and i32 %1, 31
  %shl = shl i32 %0, %and
  %2 = load i32, ptr %word.addr, align 4
  %3 = load i32, ptr %shift.addr, align 4
  %sub = sub i32 0, %3
  %and1 = and i32 %sub, 31
  %shr = lshr i32 %2, %and1
  %or = or i32 %shl, %shr
  ret i32 %or
}

; Function Attrs: nounwind sspstrong uwtable
define internal void @aesenc_MC_swap(ptr noundef %r, ptr noundef %st, i1 noundef zeroext %swap) #0 {
entry:
  %r.addr = alloca ptr, align 8
  %st.addr = alloca ptr, align 8
  %swap.addr = alloca i8, align 1
  %swap_b = alloca i32, align 4
  %swap_w = alloca i32, align 4
  %be = alloca i8, align 1
  %t = alloca i32, align 4
  store ptr %r, ptr %r.addr, align 8
  store ptr %st, ptr %st.addr, align 8
  %frombool = zext i1 %swap to i8
  store i8 %frombool, ptr %swap.addr, align 1
  %0 = load i8, ptr %swap.addr, align 1
  %tobool = trunc i8 %0 to i1
  %conv = zext i1 %tobool to i32
  %mul = mul i32 %conv, 15
  store i32 %mul, ptr %swap_b, align 4
  %1 = load i8, ptr %swap.addr, align 1
  %tobool1 = trunc i8 %1 to i1
  %conv2 = zext i1 %tobool1 to i32
  %mul3 = mul i32 %conv2, 3
  store i32 %mul3, ptr %swap_w, align 4
  %2 = load i8, ptr %swap.addr, align 1
  %tobool4 = trunc i8 %2 to i1
  %conv5 = zext i1 %tobool4 to i32
  %xor = xor i32 0, %conv5
  %tobool6 = icmp ne i32 %xor, 0
  %frombool7 = zext i1 %tobool6 to i8
  store i8 %frombool7, ptr %be, align 1
  %3 = load ptr, ptr %st.addr, align 8
  %4 = load i32, ptr %swap_b, align 4
  %xor8 = xor i32 %4, 0
  %idxprom = sext i32 %xor8 to i64
  %arrayidx = getelementptr [16 x i8], ptr %3, i64 0, i64 %idxprom
  %5 = load i8, ptr %arrayidx, align 1
  %idxprom9 = zext i8 %5 to i64
  %arrayidx10 = getelementptr [256 x i32], ptr @AES_mc_rot, i64 0, i64 %idxprom9
  %6 = load i32, ptr %arrayidx10, align 4
  %7 = load ptr, ptr %st.addr, align 8
  %8 = load i32, ptr %swap_b, align 4
  %xor11 = xor i32 %8, 1
  %idxprom12 = sext i32 %xor11 to i64
  %arrayidx13 = getelementptr [16 x i8], ptr %7, i64 0, i64 %idxprom12
  %9 = load i8, ptr %arrayidx13, align 1
  %idxprom14 = zext i8 %9 to i64
  %arrayidx15 = getelementptr [256 x i32], ptr @AES_mc_rot, i64 0, i64 %idxprom14
  %10 = load i32, ptr %arrayidx15, align 4
  %call = call i32 @rol32(i32 noundef %10, i32 noundef 8)
  %xor16 = xor i32 %6, %call
  %11 = load ptr, ptr %st.addr, align 8
  %12 = load i32, ptr %swap_b, align 4
  %xor17 = xor i32 %12, 2
  %idxprom18 = sext i32 %xor17 to i64
  %arrayidx19 = getelementptr [16 x i8], ptr %11, i64 0, i64 %idxprom18
  %13 = load i8, ptr %arrayidx19, align 1
  %idxprom20 = zext i8 %13 to i64
  %arrayidx21 = getelementptr [256 x i32], ptr @AES_mc_rot, i64 0, i64 %idxprom20
  %14 = load i32, ptr %arrayidx21, align 4
  %call22 = call i32 @rol32(i32 noundef %14, i32 noundef 16)
  %xor23 = xor i32 %xor16, %call22
  %15 = load ptr, ptr %st.addr, align 8
  %16 = load i32, ptr %swap_b, align 4
  %xor24 = xor i32 %16, 3
  %idxprom25 = sext i32 %xor24 to i64
  %arrayidx26 = getelementptr [16 x i8], ptr %15, i64 0, i64 %idxprom25
  %17 = load i8, ptr %arrayidx26, align 1
  %idxprom27 = zext i8 %17 to i64
  %arrayidx28 = getelementptr [256 x i32], ptr @AES_mc_rot, i64 0, i64 %idxprom27
  %18 = load i32, ptr %arrayidx28, align 4
  %call29 = call i32 @rol32(i32 noundef %18, i32 noundef 24)
  %xor30 = xor i32 %xor23, %call29
  store i32 %xor30, ptr %t, align 4
  %19 = load i8, ptr %be, align 1
  %tobool31 = trunc i8 %19 to i1
  br i1 %tobool31, label %if.then, label %if.end

if.then:                                          ; preds = %entry
  %20 = load i32, ptr %t, align 4
  %21 = call i32 @llvm.bswap.i32(i32 %20)
  store i32 %21, ptr %t, align 4
  br label %if.end

if.end:                                           ; preds = %if.then, %entry
  %22 = load i32, ptr %t, align 4
  %23 = load ptr, ptr %r.addr, align 8
  %24 = load i32, ptr %swap_w, align 4
  %xor32 = xor i32 %24, 0
  %idxprom33 = sext i32 %xor32 to i64
  %arrayidx34 = getelementptr [4 x i32], ptr %23, i64 0, i64 %idxprom33
  store i32 %22, ptr %arrayidx34, align 4
  %25 = load ptr, ptr %st.addr, align 8
  %26 = load i32, ptr %swap_b, align 4
  %xor35 = xor i32 %26, 4
  %idxprom36 = sext i32 %xor35 to i64
  %arrayidx37 = getelementptr [16 x i8], ptr %25, i64 0, i64 %idxprom36
  %27 = load i8, ptr %arrayidx37, align 1
  %idxprom38 = zext i8 %27 to i64
  %arrayidx39 = getelementptr [256 x i32], ptr @AES_mc_rot, i64 0, i64 %idxprom38
  %28 = load i32, ptr %arrayidx39, align 4
  %29 = load ptr, ptr %st.addr, align 8
  %30 = load i32, ptr %swap_b, align 4
  %xor40 = xor i32 %30, 5
  %idxprom41 = sext i32 %xor40 to i64
  %arrayidx42 = getelementptr [16 x i8], ptr %29, i64 0, i64 %idxprom41
  %31 = load i8, ptr %arrayidx42, align 1
  %idxprom43 = zext i8 %31 to i64
  %arrayidx44 = getelementptr [256 x i32], ptr @AES_mc_rot, i64 0, i64 %idxprom43
  %32 = load i32, ptr %arrayidx44, align 4
  %call45 = call i32 @rol32(i32 noundef %32, i32 noundef 8)
  %xor46 = xor i32 %28, %call45
  %33 = load ptr, ptr %st.addr, align 8
  %34 = load i32, ptr %swap_b, align 4
  %xor47 = xor i32 %34, 6
  %idxprom48 = sext i32 %xor47 to i64
  %arrayidx49 = getelementptr [16 x i8], ptr %33, i64 0, i64 %idxprom48
  %35 = load i8, ptr %arrayidx49, align 1
  %idxprom50 = zext i8 %35 to i64
  %arrayidx51 = getelementptr [256 x i32], ptr @AES_mc_rot, i64 0, i64 %idxprom50
  %36 = load i32, ptr %arrayidx51, align 4
  %call52 = call i32 @rol32(i32 noundef %36, i32 noundef 16)
  %xor53 = xor i32 %xor46, %call52
  %37 = load ptr, ptr %st.addr, align 8
  %38 = load i32, ptr %swap_b, align 4
  %xor54 = xor i32 %38, 7
  %idxprom55 = sext i32 %xor54 to i64
  %arrayidx56 = getelementptr [16 x i8], ptr %37, i64 0, i64 %idxprom55
  %39 = load i8, ptr %arrayidx56, align 1
  %idxprom57 = zext i8 %39 to i64
  %arrayidx58 = getelementptr [256 x i32], ptr @AES_mc_rot, i64 0, i64 %idxprom57
  %40 = load i32, ptr %arrayidx58, align 4
  %call59 = call i32 @rol32(i32 noundef %40, i32 noundef 24)
  %xor60 = xor i32 %xor53, %call59
  store i32 %xor60, ptr %t, align 4
  %41 = load i8, ptr %be, align 1
  %tobool61 = trunc i8 %41 to i1
  br i1 %tobool61, label %if.then62, label %if.end63

if.then62:                                        ; preds = %if.end
  %42 = load i32, ptr %t, align 4
  %43 = call i32 @llvm.bswap.i32(i32 %42)
  store i32 %43, ptr %t, align 4
  br label %if.end63

if.end63:                                         ; preds = %if.then62, %if.end
  %44 = load i32, ptr %t, align 4
  %45 = load ptr, ptr %r.addr, align 8
  %46 = load i32, ptr %swap_w, align 4
  %xor64 = xor i32 %46, 1
  %idxprom65 = sext i32 %xor64 to i64
  %arrayidx66 = getelementptr [4 x i32], ptr %45, i64 0, i64 %idxprom65
  store i32 %44, ptr %arrayidx66, align 4
  %47 = load ptr, ptr %st.addr, align 8
  %48 = load i32, ptr %swap_b, align 4
  %xor67 = xor i32 %48, 8
  %idxprom68 = sext i32 %xor67 to i64
  %arrayidx69 = getelementptr [16 x i8], ptr %47, i64 0, i64 %idxprom68
  %49 = load i8, ptr %arrayidx69, align 1
  %idxprom70 = zext i8 %49 to i64
  %arrayidx71 = getelementptr [256 x i32], ptr @AES_mc_rot, i64 0, i64 %idxprom70
  %50 = load i32, ptr %arrayidx71, align 4
  %51 = load ptr, ptr %st.addr, align 8
  %52 = load i32, ptr %swap_b, align 4
  %xor72 = xor i32 %52, 9
  %idxprom73 = sext i32 %xor72 to i64
  %arrayidx74 = getelementptr [16 x i8], ptr %51, i64 0, i64 %idxprom73
  %53 = load i8, ptr %arrayidx74, align 1
  %idxprom75 = zext i8 %53 to i64
  %arrayidx76 = getelementptr [256 x i32], ptr @AES_mc_rot, i64 0, i64 %idxprom75
  %54 = load i32, ptr %arrayidx76, align 4
  %call77 = call i32 @rol32(i32 noundef %54, i32 noundef 8)
  %xor78 = xor i32 %50, %call77
  %55 = load ptr, ptr %st.addr, align 8
  %56 = load i32, ptr %swap_b, align 4
  %xor79 = xor i32 %56, 10
  %idxprom80 = sext i32 %xor79 to i64
  %arrayidx81 = getelementptr [16 x i8], ptr %55, i64 0, i64 %idxprom80
  %57 = load i8, ptr %arrayidx81, align 1
  %idxprom82 = zext i8 %57 to i64
  %arrayidx83 = getelementptr [256 x i32], ptr @AES_mc_rot, i64 0, i64 %idxprom82
  %58 = load i32, ptr %arrayidx83, align 4
  %call84 = call i32 @rol32(i32 noundef %58, i32 noundef 16)
  %xor85 = xor i32 %xor78, %call84
  %59 = load ptr, ptr %st.addr, align 8
  %60 = load i32, ptr %swap_b, align 4
  %xor86 = xor i32 %60, 11
  %idxprom87 = sext i32 %xor86 to i64
  %arrayidx88 = getelementptr [16 x i8], ptr %59, i64 0, i64 %idxprom87
  %61 = load i8, ptr %arrayidx88, align 1
  %idxprom89 = zext i8 %61 to i64
  %arrayidx90 = getelementptr [256 x i32], ptr @AES_mc_rot, i64 0, i64 %idxprom89
  %62 = load i32, ptr %arrayidx90, align 4
  %call91 = call i32 @rol32(i32 noundef %62, i32 noundef 24)
  %xor92 = xor i32 %xor85, %call91
  store i32 %xor92, ptr %t, align 4
  %63 = load i8, ptr %be, align 1
  %tobool93 = trunc i8 %63 to i1
  br i1 %tobool93, label %if.then94, label %if.end95

if.then94:                                        ; preds = %if.end63
  %64 = load i32, ptr %t, align 4
  %65 = call i32 @llvm.bswap.i32(i32 %64)
  store i32 %65, ptr %t, align 4
  br label %if.end95

if.end95:                                         ; preds = %if.then94, %if.end63
  %66 = load i32, ptr %t, align 4
  %67 = load ptr, ptr %r.addr, align 8
  %68 = load i32, ptr %swap_w, align 4
  %xor96 = xor i32 %68, 2
  %idxprom97 = sext i32 %xor96 to i64
  %arrayidx98 = getelementptr [4 x i32], ptr %67, i64 0, i64 %idxprom97
  store i32 %66, ptr %arrayidx98, align 4
  %69 = load ptr, ptr %st.addr, align 8
  %70 = load i32, ptr %swap_b, align 4
  %xor99 = xor i32 %70, 12
  %idxprom100 = sext i32 %xor99 to i64
  %arrayidx101 = getelementptr [16 x i8], ptr %69, i64 0, i64 %idxprom100
  %71 = load i8, ptr %arrayidx101, align 1
  %idxprom102 = zext i8 %71 to i64
  %arrayidx103 = getelementptr [256 x i32], ptr @AES_mc_rot, i64 0, i64 %idxprom102
  %72 = load i32, ptr %arrayidx103, align 4
  %73 = load ptr, ptr %st.addr, align 8
  %74 = load i32, ptr %swap_b, align 4
  %xor104 = xor i32 %74, 13
  %idxprom105 = sext i32 %xor104 to i64
  %arrayidx106 = getelementptr [16 x i8], ptr %73, i64 0, i64 %idxprom105
  %75 = load i8, ptr %arrayidx106, align 1
  %idxprom107 = zext i8 %75 to i64
  %arrayidx108 = getelementptr [256 x i32], ptr @AES_mc_rot, i64 0, i64 %idxprom107
  %76 = load i32, ptr %arrayidx108, align 4
  %call109 = call i32 @rol32(i32 noundef %76, i32 noundef 8)
  %xor110 = xor i32 %72, %call109
  %77 = load ptr, ptr %st.addr, align 8
  %78 = load i32, ptr %swap_b, align 4
  %xor111 = xor i32 %78, 14
  %idxprom112 = sext i32 %xor111 to i64
  %arrayidx113 = getelementptr [16 x i8], ptr %77, i64 0, i64 %idxprom112
  %79 = load i8, ptr %arrayidx113, align 1
  %idxprom114 = zext i8 %79 to i64
  %arrayidx115 = getelementptr [256 x i32], ptr @AES_mc_rot, i64 0, i64 %idxprom114
  %80 = load i32, ptr %arrayidx115, align 4
  %call116 = call i32 @rol32(i32 noundef %80, i32 noundef 16)
  %xor117 = xor i32 %xor110, %call116
  %81 = load ptr, ptr %st.addr, align 8
  %82 = load i32, ptr %swap_b, align 4
  %xor118 = xor i32 %82, 15
  %idxprom119 = sext i32 %xor118 to i64
  %arrayidx120 = getelementptr [16 x i8], ptr %81, i64 0, i64 %idxprom119
  %83 = load i8, ptr %arrayidx120, align 1
  %idxprom121 = zext i8 %83 to i64
  %arrayidx122 = getelementptr [256 x i32], ptr @AES_mc_rot, i64 0, i64 %idxprom121
  %84 = load i32, ptr %arrayidx122, align 4
  %call123 = call i32 @rol32(i32 noundef %84, i32 noundef 24)
  %xor124 = xor i32 %xor117, %call123
  store i32 %xor124, ptr %t, align 4
  %85 = load i8, ptr %be, align 1
  %tobool125 = trunc i8 %85 to i1
  br i1 %tobool125, label %if.then126, label %if.end127

if.then126:                                       ; preds = %if.end95
  %86 = load i32, ptr %t, align 4
  %87 = call i32 @llvm.bswap.i32(i32 %86)
  store i32 %87, ptr %t, align 4
  br label %if.end127

if.end127:                                        ; preds = %if.then126, %if.end95
  %88 = load i32, ptr %t, align 4
  %89 = load ptr, ptr %r.addr, align 8
  %90 = load i32, ptr %swap_w, align 4
  %xor128 = xor i32 %90, 3
  %idxprom129 = sext i32 %xor128 to i64
  %arrayidx130 = getelementptr [4 x i32], ptr %89, i64 0, i64 %idxprom129
  store i32 %88, ptr %arrayidx130, align 4
  ret void
}

; Function Attrs: nounwind sspstrong uwtable
define dso_local void @aesenc_MC_genrev(ptr noundef %r, ptr noundef %st) #0 {
entry:
  %r.addr = alloca ptr, align 8
  %st.addr = alloca ptr, align 8
  store ptr %r, ptr %r.addr, align 8
  store ptr %st, ptr %st.addr, align 8
  %0 = load ptr, ptr %r.addr, align 8
  %1 = load ptr, ptr %st.addr, align 8
  call void @aesenc_MC_swap(ptr noundef %0, ptr noundef %1, i1 noundef zeroext true)
  ret void
}